target datalayout = "e-m:e-p270:32:32-p271:32:32-p272:64:64-i64:64-i128:128-f80:128-n8:16:32:64-S128"
target triple = "x86_64-unknown-linux-gnu"

%struct.drm_i915_getparam32 = type { i32, i32 }
%struct.drm_i915_getparam = type { i32, ptr }

@i915_compat_ioctls = internal unnamed_addr constant [7 x ptr] [ptr null, ptr null, ptr null, ptr null, ptr null, ptr null, ptr @compat_i915_getparam], align 16

; Function Attrs: fn_ret_thunk_extern nounwind null_pointer_is_valid
define dso_local i64 @i915_ioc32_compat_ioctl(ptr noundef %0, i32 noundef %1, i64 noundef %2) local_unnamed_addr #0 align 16 {
  %4 = and i32 %1, 255
  %5 = add nsw i32 %4, -160
  %6 = icmp ult i32 %5, -96
  br i1 %6, label %7, label %9

7:                                                ; preds = %3
  %8 = tail call i64 @drm_compat_ioctl(ptr noundef %0, i32 noundef %1, i64 noundef %2) #4
  br label %27

9:                                                ; preds = %3
  %10 = icmp ult i32 %4, 71
  br i1 %10, label %11, label %16

11:                                               ; preds = %9
  %12 = add nsw i32 %4, -64
  %13 = zext nneg i32 %12 to i64
  %14 = getelementptr [7 x ptr], ptr @i915_compat_ioctls, i64 0, i64 %13
  %15 = load ptr, ptr %14, align 8
  br label %16

16:                                               ; preds = %11, %9
  %17 = phi ptr [ %15, %11 ], [ null, %9 ]
  %18 = icmp eq ptr %17, null
  br i1 %18, label %21, label %19

19:                                               ; preds = %16
  %20 = tail call i32 %17(ptr noundef %0, i32 noundef %1, i64 noundef %2) #4
  br label %24

21:                                               ; preds = %16
  %22 = tail call i64 @drm_ioctl(ptr noundef %0, i32 noundef %1, i64 noundef %2) #4
  %23 = trunc i64 %22 to i32
  br label %24

24:                                               ; preds = %21, %19
  %25 = phi i32 [ %20, %19 ], [ %23, %21 ]
  %26 = sext i32 %25 to i64
  br label %27

27:                                               ; preds = %24, %7
  %28 = phi i64 [ %8, %7 ], [ %26, %24 ]
  ret i64 %28
}

; Function Attrs: nocallback nofree nosync nounwind willreturn memory(argmem: readwrite)
declare void @llvm.lifetime.start.p0(i64 immarg, ptr nocapture) #1

; Function Attrs: null_pointer_is_valid
declare dso_local i64 @drm_compat_ioctl(ptr noundef, i32 noundef, i64 noundef) local_unnamed_addr #2

; Function Attrs: null_pointer_is_valid
declare dso_local i64 @drm_ioctl(ptr noundef, i32 noundef, i64 noundef) local_unnamed_addr #2

; Function Attrs: nocallback nofree nosync nounwind willreturn memory(argmem: readwrite)
declare void @llvm.lifetime.end.p0(i64 immarg, ptr nocapture) #1

; Function Attrs: fn_ret_thunk_extern nounwind null_pointer_is_valid
define internal i32 @compat_i915_getparam(ptr noundef %0, i32 %1, i64 noundef %2) #0 align 16 {
  %4 = alloca %struct.drm_i915_getparam32, align 8
  %5 = alloca %struct.drm_i915_getparam, align 8
  call void @llvm.lifetime.start.p0(i64 8, ptr nonnull %4) #4
  store i64 0, ptr %4, align 8, !annotation !5
  call void @llvm.lifetime.start.p0(i64 16, ptr nonnull %5) #4
  call void @llvm.memset.p0.i64(ptr noundef nonnull align 8 dereferenceable(16) %5, i8 0, i64 16, i1 false), !annotation !5
  %6 = inttoptr i64 %2 to ptr
  %7 = call i64 @_copy_from_user(ptr noundef nonnull %4, ptr noundef %6, i64 noundef 8) #4
  %8 = icmp eq i64 %7, 0
  br i1 %8, label %9, label %18

9:                                                ; preds = %3
  %10 = load i32, ptr %4, align 8
  store i32 %10, ptr %5, align 8
  %11 = getelementptr inbounds i8, ptr %4, i64 4
  %12 = load i32, ptr %11, align 4
  %13 = zext i32 %12 to i64
  %14 = inttoptr i64 %13 to ptr
  %15 = getelementptr inbounds i8, ptr %5, i64 8
  store ptr %14, ptr %15, align 8
  %16 = call i64 @drm_ioctl_kernel(ptr noundef %0, ptr noundef nonnull @i915_getparam_ioctl, ptr noundef nonnull %5, i32 noundef 32) #4
  %17 = trunc i64 %16 to i32
  br label %18

18:                                               ; preds = %9, %3
  %19 = phi i32 [ %17, %9 ], [ -14, %3 ]
  call void @llvm.lifetime.end.p0(i64 16, ptr nonnull %5) #4
  call void @llvm.lifetime.end.p0(i64 8, ptr nonnull %4) #4
  ret i32 %19
}

; Function Attrs: nocallback nofree nounwind willreturn memory(argmem: write)
declare void @llvm.memset.p0.i64(ptr nocapture writeonly, i8, i64, i1 immarg) #3

; Function Attrs: null_pointer_is_valid
declare dso_local i64 @drm_ioctl_kernel(ptr noundef, ptr noundef, ptr noundef, i32 noundef) local_unnamed_addr #2

; Function Attrs: null_pointer_is_valid
declare dso_local i32 @i915_getparam_ioctl(ptr noundef, ptr noundef, ptr noundef) #2

; Function Attrs: null_pointer_is_valid
declare dso_local i64 @_copy_from_user(ptr noundef, ptr noundef, i64 noundef) local_unnamed_addr #2


!llvm.module.flags = !{!0, !1, !2, !3, !4}

!0 = !{i32 1, !"wchar_size", i32 2}
!1 = !{i32 8, !"cf-protection-branch", i32 1}
!2 = !{i32 4, !"function_return_thunk_extern", i32 1}
!3 = !{i32 4, !"indirect_branch_cs_prefix", i32 1}
!4 = !{i32 4, !"SkipRaxSetup", i32 1}
!5 = !{!"auto-init"}
